target datalayout = "e-m:e-p270:32:32-p271:32:32-p272:64:64-i64:64-i128:128-f80:128-n8:16:32:64-S128"
target triple = "x86_64-pc-linux-gnu"

%class.State = type { [315 x i32], [315 x i16], i32, ptr, [2 x ptr] }

; Function Attrs: mustprogress nounwind uwtable
define hidden void @_ZN5State12_sub_Op_VecSEPK4Node(ptr noundef nonnull align 8 dereferenceable(1920) %0, ptr noundef %1) #1 align 2 {
  %3 = alloca ptr, align 8
  %4 = alloca ptr, align 8
  %5 = alloca i32, align 4
  %6 = alloca i32, align 4
  %7 = alloca i32, align 4
  %8 = alloca i32, align 4
  store ptr %0, ptr %3, align 8
  store ptr %1, ptr %4, align 8
  %9 = load ptr, ptr %3, align 8
  store i32 0, ptr %5, align 4
  %10 = load i32, ptr %5, align 4
  %11 = getelementptr inbounds %class.State, ptr %9, i32 0, i32 0
  %12 = getelementptr inbounds [315 x i32], ptr %11, i64 0, i64 117
  store i32 %10, ptr %12, align 4
  %13 = getelementptr inbounds %class.State, ptr %9, i32 0, i32 1
  %14 = getelementptr inbounds [315 x i16], ptr %13, i64 0, i64 117
  store i16 235, ptr %14, align 2
  store i32 0, ptr %6, align 4
  %15 = load i32, ptr %6, align 4
  %16 = getelementptr inbounds %class.State, ptr %9, i32 0, i32 0
  %17 = getelementptr inbounds [315 x i32], ptr %16, i64 0, i64 116
  store i32 %15, ptr %17, align 8
  %18 = getelementptr inbounds %class.State, ptr %9, i32 0, i32 1
  %19 = getelementptr inbounds [315 x i16], ptr %18, i64 0, i64 116
  store i16 233, ptr %19, align 4
  store i32 0, ptr %7, align 4
  %20 = load i32, ptr %7, align 4
  %21 = getelementptr inbounds %class.State, ptr %9, i32 0, i32 0
  %22 = getelementptr inbounds [315 x i32], ptr %21, i64 0, i64 115
  store i32 %20, ptr %22, align 4
  %23 = getelementptr inbounds %class.State, ptr %9, i32 0, i32 1
  %24 = getelementptr inbounds [315 x i16], ptr %23, i64 0, i64 115
  store i16 231, ptr %24, align 2
  %25 = load i32, ptr %7, align 4
  %26 = add i32 %25, 100
  %27 = getelementptr inbounds %class.State, ptr %9, i32 0, i32 0
  %28 = getelementptr inbounds [315 x i32], ptr %27, i64 0, i64 114
  store i32 %26, ptr %28, align 8
  %29 = getelementptr inbounds %class.State, ptr %9, i32 0, i32 1
  %30 = getelementptr inbounds [315 x i16], ptr %29, i64 0, i64 114
  store i16 733, ptr %30, align 4
  store i32 0, ptr %8, align 4
  %31 = load i32, ptr %8, align 4
  %32 = getelementptr inbounds %class.State, ptr %9, i32 0, i32 0
  %33 = getelementptr inbounds [315 x i32], ptr %32, i64 0, i64 114
  store i32 %31, ptr %33, align 8
  %34 = getelementptr inbounds %class.State, ptr %9, i32 0, i32 1
  %35 = getelementptr inbounds [315 x i16], ptr %34, i64 0, i64 114
  store i16 229, ptr %35, align 4
  ret void
}